; Function Attrs: mustprogress nofree norecurse nosync nounwind memory(argmem: readwrite) uwtable
define internal void @_ZL17tMPI_UNSIGNED_maxPvPKvS1_i(ptr noundef writeonly captures(none) %0, ptr noundef readonly captures(none) %1, ptr noundef readonly captures(none) %2, i32 noundef %3) #0 {
  %5 = icmp sgt i32 %3, 0
  br i1 %5, label %.lr.ph.preheader, label %._crit_edge

.lr.ph.preheader:                                 ; preds = %4
  %wide.trip.count = zext nneg i32 %3 to i64
  br label %.lr.ph

.lr.ph:                                           ; preds = %.lr.ph.preheader, %.lr.ph
  %indvars.iv = phi i64 [ 0, %.lr.ph.preheader ], [ %indvars.iv.next, %.lr.ph ]
  %6 = getelementptr inbounds nuw i32, ptr %1, i64 %indvars.iv
  %7 = load i32, ptr %6, align 4, !tbaa !36
  %8 = getelementptr inbounds nuw i32, ptr %2, i64 %indvars.iv
  %9 = load i32, ptr %8, align 4, !tbaa !36
  %. = tail call i32 @llvm.umax.i32(i32 %7, i32 %9)
  %10 = getelementptr inbounds nuw i32, ptr %0, i64 %indvars.iv
  store i32 %., ptr %10, align 4, !tbaa !36
  %indvars.iv.next = add nuw nsw i64 %indvars.iv, 1
  %exitcond.not = icmp eq i64 %indvars.iv.next, %wide.trip.count
  br i1 %exitcond.not, label %._crit_edge, label %.lr.ph, !llvm.loop !90

._crit_edge:                                      ; preds = %.lr.ph, %4
  ret void
}